target datalayout = "e-m:e-p270:32:32-p271:32:32-p272:64:64-i64:64-i128:128-f80:128-n8:16:32:64-S128"
target triple = "x86_64-pc-linux-gnu"

%struct._generic_N_Vector = type { ptr, ptr, ptr }
%struct._N_VectorContent_SensWrapper = type { ptr, i32, i32 }

; Function Attrs: nounwind uwtable
define void @N_VDestroy_SensWrapper(ptr noundef %0) #0 {
  %2 = alloca ptr, align 8
  %3 = alloca i32, align 4
  store ptr %0, ptr %2, align 8, !tbaa !10
  call void @llvm.lifetime.start.p0(i64 4, ptr %3) #5
  %4 = load ptr, ptr %2, align 8, !tbaa !10
  %5 = getelementptr inbounds nuw %struct._generic_N_Vector, ptr %4, i32 0, i32 0
  %6 = load ptr, ptr %5, align 8, !tbaa !45
  %7 = getelementptr inbounds nuw %struct._N_VectorContent_SensWrapper, ptr %6, i32 0, i32 2
  %8 = load i32, ptr %7, align 4, !tbaa !43
  %9 = icmp eq i32 %8, 1
  br i1 %9, label %10, label %53

10:                                               ; preds = %1
  store i32 0, ptr %3, align 4, !tbaa !3
  br label %11

11:                                               ; preds = %49, %10
  %12 = load i32, ptr %3, align 4, !tbaa !3
  %13 = load ptr, ptr %2, align 8, !tbaa !10
  %14 = getelementptr inbounds nuw %struct._generic_N_Vector, ptr %13, i32 0, i32 0
  %15 = load ptr, ptr %14, align 8, !tbaa !45
  %16 = getelementptr inbounds nuw %struct._N_VectorContent_SensWrapper, ptr %15, i32 0, i32 1
  %17 = load i32, ptr %16, align 8, !tbaa !40
  %18 = icmp slt i32 %12, %17
  br i1 %18, label %19, label %52

19:                                               ; preds = %11
  %20 = load ptr, ptr %2, align 8, !tbaa !10
  %21 = getelementptr inbounds nuw %struct._generic_N_Vector, ptr %20, i32 0, i32 0
  %22 = load ptr, ptr %21, align 8, !tbaa !45
  %23 = getelementptr inbounds nuw %struct._N_VectorContent_SensWrapper, ptr %22, i32 0, i32 0
  %24 = load ptr, ptr %23, align 8, !tbaa !44
  %25 = load i32, ptr %3, align 4, !tbaa !3
  %26 = sext i32 %25 to i64
  %27 = getelementptr inbounds ptr, ptr %24, i64 %26
  %28 = load ptr, ptr %27, align 8, !tbaa !10
  %29 = icmp ne ptr %28, null
  br i1 %29, label %30, label %40

30:                                               ; preds = %19
  %31 = load ptr, ptr %2, align 8, !tbaa !10
  %32 = getelementptr inbounds nuw %struct._generic_N_Vector, ptr %31, i32 0, i32 0
  %33 = load ptr, ptr %32, align 8, !tbaa !45
  %34 = getelementptr inbounds nuw %struct._N_VectorContent_SensWrapper, ptr %33, i32 0, i32 0
  %35 = load ptr, ptr %34, align 8, !tbaa !44
  %36 = load i32, ptr %3, align 4, !tbaa !3
  %37 = sext i32 %36 to i64
  %38 = getelementptr inbounds ptr, ptr %35, i64 %37
  %39 = load ptr, ptr %38, align 8, !tbaa !10
  call void @N_VDestroy(ptr noundef %39)
  br label %40

40:                                               ; preds = %30, %19
  %41 = load ptr, ptr %2, align 8, !tbaa !10
  %42 = getelementptr inbounds nuw %struct._generic_N_Vector, ptr %41, i32 0, i32 0
  %43 = load ptr, ptr %42, align 8, !tbaa !45
  %44 = getelementptr inbounds nuw %struct._N_VectorContent_SensWrapper, ptr %43, i32 0, i32 0
  %45 = load ptr, ptr %44, align 8, !tbaa !44
  %46 = load i32, ptr %3, align 4, !tbaa !3
  %47 = sext i32 %46 to i64
  %48 = getelementptr inbounds ptr, ptr %45, i64 %47
  store ptr null, ptr %48, align 8, !tbaa !10
  br label %49

49:                                               ; preds = %40
  %50 = load i32, ptr %3, align 4, !tbaa !3
  %51 = add nsw i32 %50, 1
  store i32 %51, ptr %3, align 4, !tbaa !3
  br label %11

52:                                               ; preds = %11
  br label %53

53:                                               ; preds = %52, %1
  %54 = load ptr, ptr %2, align 8, !tbaa !10
  %55 = getelementptr inbounds nuw %struct._generic_N_Vector, ptr %54, i32 0, i32 0
  %56 = load ptr, ptr %55, align 8, !tbaa !45
  %57 = getelementptr inbounds nuw %struct._N_VectorContent_SensWrapper, ptr %56, i32 0, i32 0
  %58 = load ptr, ptr %57, align 8, !tbaa !44
  call void @free(ptr noundef %58) #5
  %59 = load ptr, ptr %2, align 8, !tbaa !10
  %60 = getelementptr inbounds nuw %struct._generic_N_Vector, ptr %59, i32 0, i32 0
  %61 = load ptr, ptr %60, align 8, !tbaa !45
  %62 = getelementptr inbounds nuw %struct._N_VectorContent_SensWrapper, ptr %61, i32 0, i32 0
  store ptr null, ptr %62, align 8, !tbaa !44
  %63 = load ptr, ptr %2, align 8, !tbaa !10
  %64 = getelementptr inbounds nuw %struct._generic_N_Vector, ptr %63, i32 0, i32 0
  %65 = load ptr, ptr %64, align 8, !tbaa !45
  call void @free(ptr noundef %65) #5
  %66 = load ptr, ptr %2, align 8, !tbaa !10
  %67 = getelementptr inbounds nuw %struct._generic_N_Vector, ptr %66, i32 0, i32 0
  store ptr null, ptr %67, align 8, !tbaa !45
  %68 = load ptr, ptr %2, align 8, !tbaa !10
  %69 = getelementptr inbounds nuw %struct._generic_N_Vector, ptr %68, i32 0, i32 1
  %70 = load ptr, ptr %69, align 8, !tbaa !12
  call void @free(ptr noundef %70) #5
  %71 = load ptr, ptr %2, align 8, !tbaa !10
  %72 = getelementptr inbounds nuw %struct._generic_N_Vector, ptr %71, i32 0, i32 1
  store ptr null, ptr %72, align 8, !tbaa !12
  %73 = load ptr, ptr %2, align 8, !tbaa !10
  call void @free(ptr noundef %73) #5
  store ptr null, ptr %2, align 8, !tbaa !10
  call void @llvm.lifetime.end.p0(i64 4, ptr %3) #5
  ret void
}