; Function Attrs: nounwind uwtable
define void @N_VDestroy_SensWrapper(ptr noundef captures(none) %0) #0 {
  %2 = load ptr, ptr %0, align 8, !tbaa !39
  %3 = getelementptr inbounds nuw i8, ptr %2, i64 12
  %4 = load i32, ptr %3, align 4, !tbaa !37
  %5 = icmp eq i32 %4, 1
  br i1 %5, label %.preheader, label %.loopexit

.preheader:                                       ; preds = %1
  %6 = getelementptr inbounds nuw i8, ptr %2, i64 8
  %7 = load i32, ptr %6, align 8, !tbaa !33
  %8 = icmp sgt i32 %7, 0
  br i1 %8, label %.lr.ph.preheader, label %.loopexit

.lr.ph.preheader:                                 ; preds = %.preheader
  %.pre = load ptr, ptr %2, align 8, !tbaa !38
  br label %.lr.ph

.lr.ph:                                           ; preds = %.lr.ph.preheader, %14
  %9 = phi ptr [ %.pre, %.lr.ph.preheader ], [ %15, %14 ]
  %10 = phi ptr [ %2, %.lr.ph.preheader ], [ %16, %14 ]
  %indvars.iv = phi i64 [ 0, %.lr.ph.preheader ], [ %indvars.iv.next, %14 ]
  %11 = getelementptr inbounds nuw ptr, ptr %9, i64 %indvars.iv
  %12 = load ptr, ptr %11, align 8, !tbaa !40
  %.not = icmp eq ptr %12, null
  br i1 %.not, label %14, label %13

13:                                               ; preds = %.lr.ph
  tail call void @N_VDestroy(ptr noundef nonnull %12) #7
  %.pre19 = load ptr, ptr %0, align 8, !tbaa !39
  %.pre20 = load ptr, ptr %.pre19, align 8, !tbaa !38
  br label %14

14:                                               ; preds = %13, %.lr.ph
  %15 = phi ptr [ %.pre20, %13 ], [ %9, %.lr.ph ]
  %16 = phi ptr [ %.pre19, %13 ], [ %10, %.lr.ph ]
  %17 = getelementptr inbounds nuw ptr, ptr %15, i64 %indvars.iv
  store ptr null, ptr %17, align 8, !tbaa !40
  %indvars.iv.next = add nuw nsw i64 %indvars.iv, 1
  %18 = getelementptr inbounds nuw i8, ptr %16, i64 8
  %19 = load i32, ptr %18, align 8, !tbaa !33
  %20 = sext i32 %19 to i64
  %21 = icmp slt i64 %indvars.iv.next, %20
  br i1 %21, label %.lr.ph, label %.loopexit

.loopexit:                                        ; preds = %14, %.preheader, %1
  %22 = phi ptr [ %2, %.preheader ], [ %2, %1 ], [ %16, %14 ]
  %23 = load ptr, ptr %22, align 8, !tbaa !38
  tail call void @free(ptr noundef %23) #7
  %24 = load ptr, ptr %0, align 8, !tbaa !39
  tail call void @free(ptr noundef %24) #7
  store ptr null, ptr %0, align 8, !tbaa !39
  %25 = getelementptr inbounds nuw i8, ptr %0, i64 8
  %26 = load ptr, ptr %25, align 8, !tbaa !3
  tail call void @free(ptr noundef %26) #7
  tail call void @free(ptr noundef nonnull %0) #7
  ret void
}